; Function Attrs: null_pointer_is_valid sspstrong uwtable
define internal fastcc ptr @extcap_ensure_interface(ptr noundef %0, i1 noundef zeroext %1) unnamed_addr #0 {
  %3 = load i8, ptr getelementptr inbounds nuw (i8, ptr @prefs, i64 361), align 1, !range !6, !noundef !7
  %4 = trunc nuw i8 %3 to i1
  %.not = icmp eq ptr %0, null
  %or.cond = or i1 %.not, %4
  br i1 %or.cond, label %19, label %5

5:                                                ; preds = %2
  %6 = load ptr, ptr @_loaded_interfaces, align 8
  %.not25 = icmp eq ptr %6, null
  br i1 %.not25, label %7, label %9

7:                                                ; preds = %5
  %8 = tail call ptr @g_hash_table_new_full(ptr noundef nonnull @g_str_hash, ptr noundef nonnull @g_str_equal, ptr noundef nonnull @g_free, ptr noundef nonnull @extcap_free_interface)
  store ptr %8, ptr @_loaded_interfaces, align 8
  br label %9

9:                                                ; preds = %7, %5
  %10 = phi ptr [ %8, %7 ], [ %6, %5 ]
  %11 = tail call ptr @g_hash_table_lookup(ptr noundef %10, ptr noundef nonnull %0)
  %.not26 = icmp eq ptr %11, null
  %brmerge.not = and i1 %1, %.not26
  br i1 %brmerge.not, label %12, label %19

12:                                               ; preds = %9
  %13 = load ptr, ptr @_loaded_interfaces, align 8
  %14 = tail call noalias ptr @g_strdup(ptr noundef nonnull %0)
  %15 = tail call noalias dereferenceable_or_null(40) ptr @g_malloc0(i64 noundef 40) #11
  %16 = tail call i32 @g_hash_table_insert(ptr noundef %13, ptr noundef %14, ptr noundef %15)
  %17 = load ptr, ptr @_loaded_interfaces, align 8
  %18 = tail call ptr @g_hash_table_lookup(ptr noundef %17, ptr noundef nonnull %0)
  br label %19

19:                                               ; preds = %9, %12, %2
  %.0 = phi ptr [ null, %2 ], [ null, %9 ], [ %18, %12 ]
  ret ptr %.0
}